target datalayout = "e-m:e-p270:32:32-p271:32:32-p272:64:64-i64:64-i128:128-f80:128-n8:16:32:64-S128"
target triple = "x86_64-pc-linux-gnu"

%struct.WaveExtensibleGUID = type { i16, [16 x i8] }
%struct.WaveFormat = type { i16, i16, i16, i32, i32, i16, i16, i16, i16, i32, i32, [16 x i8] }

; Function Attrs: nounwind uwtable
define internal zeroext i16 @WaveGetFormatGUIDEncoding(ptr noundef %0) #0 {
  %2 = alloca i16, align 2
  %3 = alloca ptr, align 8
  %4 = alloca i64, align 8
  %5 = alloca i32, align 4
  store ptr %0, ptr %3, align 8
  call void @llvm.lifetime.start.p0(i64 8, ptr %4) #7
  store i64 0, ptr %4, align 8
  br label %6

6:                                                ; preds = %25, %1
  %7 = load i64, ptr %4, align 8
  %8 = icmp ult i64 %7, 6
  br i1 %8, label %9, label %28

9:                                                ; preds = %6
  %10 = load ptr, ptr %3, align 8
  %11 = getelementptr inbounds nuw %struct.WaveFormat, ptr %10, i32 0, i32 11
  %12 = getelementptr inbounds [16 x i8], ptr %11, i64 0, i64 0
  %13 = load i64, ptr %4, align 8
  %14 = getelementptr inbounds nuw [6 x %struct.WaveExtensibleGUID], ptr @extensible_guids, i64 0, i64 %13
  %15 = getelementptr inbounds nuw %struct.WaveExtensibleGUID, ptr %14, i32 0, i32 1
  %16 = getelementptr inbounds [16 x i8], ptr %15, i64 0, i64 0
  %17 = call i32 @SDL_memcmp_REAL(ptr noundef %12, ptr noundef %16, i64 noundef 16)
  %18 = icmp eq i32 %17, 0
  br i1 %18, label %19, label %24

19:                                               ; preds = %9
  %20 = load i64, ptr %4, align 8
  %21 = getelementptr inbounds nuw [6 x %struct.WaveExtensibleGUID], ptr @extensible_guids, i64 0, i64 %20
  %22 = getelementptr inbounds nuw %struct.WaveExtensibleGUID, ptr %21, i32 0, i32 0
  %23 = load i16, ptr %22, align 2
  store i16 %23, ptr %2, align 2
  store i32 1, ptr %5, align 4
  br label %29

24:                                               ; preds = %9
  br label %25

25:                                               ; preds = %24
  %26 = load i64, ptr %4, align 8
  %27 = add i64 %26, 1
  store i64 %27, ptr %4, align 8
  br label %6, !llvm.loop !11

28:                                               ; preds = %6
  store i16 0, ptr %2, align 2
  store i32 1, ptr %5, align 4
  br label %29

29:                                               ; preds = %28, %19
  call void @llvm.lifetime.end.p0(i64 8, ptr %4) #7
  %30 = load i16, ptr %2, align 2
  ret i16 %30
}