; Function Attrs: nounwind uwtable
define internal fastcc zeroext i16 @WaveGetFormatGUIDEncoding(ptr noundef nonnull %0) unnamed_addr #0 {
  %2 = getelementptr inbounds nuw i8, ptr %0, i64 32
  br label %5

3:                                                ; preds = %5
  %4 = add nuw nsw i64 %.06, 1
  %exitcond.not = icmp eq i64 %4, 6
  br i1 %exitcond.not, label %.loopexit, label %5, !llvm.loop !17

5:                                                ; preds = %1, %3
  %.06 = phi i64 [ 0, %1 ], [ %4, %3 ]
  %6 = getelementptr inbounds nuw [6 x %struct.WaveExtensibleGUID], ptr @extensible_guids, i64 0, i64 %.06
  %7 = getelementptr inbounds nuw i8, ptr %6, i64 2
  %8 = tail call i32 @SDL_memcmp_REAL(ptr noundef nonnull %2, ptr noundef nonnull %7, i64 noundef 16) #8
  %9 = icmp eq i32 %8, 0
  br i1 %9, label %10, label %3

10:                                               ; preds = %5
  %11 = load i16, ptr %6, align 2
  br label %.loopexit

.loopexit:                                        ; preds = %3, %10
  %.05 = phi i16 [ %11, %10 ], [ 0, %3 ]
  ret i16 %.05
}